; Function Attrs: mustprogress uwtable
define hidden noundef zeroext i1 @_ZNK3nla11nex_creator9is_sortedERKNS_7nex_mulE(ptr noundef nonnull align 8 dereferenceable(176) %this, ptr noundef nonnull align 8 dereferenceable(48) %e) local_unnamed_addr #3 align 2 {
entry:
  %m_children.i = getelementptr inbounds i8, ptr %e, i64 40
  br label %for.cond

for.cond:                                         ; preds = %for.body, %entry
  %indvars.iv = phi i64 [ %indvars.iv.next, %for.body ], [ 0, %entry ]
  %vtable = load ptr, ptr %e, align 8
  %0 = load ptr, ptr %vtable, align 8
  %call = tail call noundef i32 %0(ptr noundef nonnull align 8 dereferenceable(48) %e)
  %sub = add i32 %call, -1
  %1 = zext i32 %sub to i64
  %cmp.not = icmp uge i64 %indvars.iv, %1
  br i1 %cmp.not, label %return, label %for.body

for.body:                                         ; preds = %for.cond
  %2 = load ptr, ptr %m_children.i, align 8
  %arrayidx.i.i = getelementptr inbounds %"class.nla::nex_pow", ptr %2, i64 %indvars.iv
  %indvars.iv.next = add nuw nsw i64 %indvars.iv, 1
  %arrayidx.i.i8 = getelementptr inbounds %"class.nla::nex_pow", ptr %2, i64 %indvars.iv.next
  %3 = load ptr, ptr %arrayidx.i.i, align 8
  %4 = load ptr, ptr %arrayidx.i.i8, align 8
  %call.i.i = tail call noundef zeroext i1 @_ZNK3nla11nex_creator2gtERKNS_3nexES3_(ptr noundef nonnull align 8 dereferenceable(176) %this, ptr noundef nonnull align 8 dereferenceable(8) %3, ptr noundef nonnull align 8 dereferenceable(8) %4)
  br i1 %call.i.i, label %for.cond, label %return, !llvm.loop !22

return:                                           ; preds = %for.cond, %for.body
  ret i1 %cmp.not
}